target datalayout = "e-m:e-p270:32:32-p271:32:32-p272:64:64-i64:64-i128:128-f80:128-n8:16:32:64-S128"
target triple = "x86_64-unknown-linux-gnu"

%"class.llvh::SMLoc" = type { ptr }
%"class.hermes::IRBuilder" = type { ptr, %"class.llvh::ilist_iterator", ptr, %"class.llvh::SMLoc", ptr }
%"class.llvh::ilist_iterator" = type { ptr }
%"class.hermes::Type" = type { i16, i16 }
%"class.hermes::Value" = type { i8, %"class.hermes::Type", %"class.llvh::SmallVector" }
%"class.llvh::SmallVector" = type { %"class.llvh::SmallVectorImpl", %"struct.llvh::SmallVectorStorage" }
%"class.llvh::SmallVectorImpl" = type { %"class.llvh::SmallVectorTemplateBase" }
%"class.llvh::SmallVectorTemplateBase" = type { %"class.llvh::SmallVectorTemplateCommon" }
%"class.llvh::SmallVectorTemplateCommon" = type { %"class.llvh::SmallVectorBase" }
%"class.llvh::SmallVectorBase" = type { ptr, i32, i32 }
%"struct.llvh::SmallVectorStorage" = type { [2 x %"struct.llvh::AlignedCharArrayUnion"] }
%"struct.llvh::AlignedCharArrayUnion" = type { %"struct.llvh::AlignedCharArray" }
%"struct.llvh::AlignedCharArray" = type { [8 x i8] }
%"class.llvh::ilist_node_base" = type { ptr, ptr }
%"class.llvh::ilist_node_with_parent.123" = type { %"class.llvh::ilist_node.124" }
%"class.llvh::ilist_node.124" = type { %"class.llvh::ilist_node_impl.0" }
%"class.llvh::ilist_node_impl.0" = type { %"class.llvh::ilist_node_base" }
%"class.llvh::SmallVector.125" = type { %"class.llvh::SmallVectorImpl.126", %"struct.llvh::SmallVectorStorage.129" }
%"class.llvh::SmallVectorImpl.126" = type { %"class.llvh::SmallVectorTemplateBase.127" }
%"class.llvh::SmallVectorTemplateBase.127" = type { %"class.llvh::SmallVectorTemplateCommon.128" }
%"class.llvh::SmallVectorTemplateCommon.128" = type { %"class.llvh::SmallVectorBase" }
%"struct.llvh::SmallVectorStorage.129" = type { [2 x %"struct.llvh::AlignedCharArrayUnion.130"] }
%"struct.llvh::AlignedCharArrayUnion.130" = type { %"struct.llvh::AlignedCharArray.131" }
%"struct.llvh::AlignedCharArray.131" = type { [16 x i8] }
%"class.hermes::Instruction" = type <{ %"class.llvh::ilist_node_with_parent.123", %"class.hermes::Value", ptr, %"class.llvh::SmallVector.125", ptr, %"class.llvh::SMLoc", i32, [4 x i8] }>

; Function Attrs: mustprogress nounwind uwtable
define linkonce_odr hidden void @_ZN4llvh14ilist_iteratorINS_12ilist_detail12node_optionsIN6hermes11InstructionELb0ELb0EvEELb0ELb0EEC2ERNS_15ilist_node_implIS5_EE(ptr noundef nonnull align 8 dereferenceable(8) %this, ptr noundef nonnull align 8 dereferenceable(16) %N) unnamed_addr #0 comdat align 2 {
entry:
  %this.addr = alloca ptr, align 8
  %N.addr = alloca ptr, align 8
  store ptr %this, ptr %this.addr, align 8
  store ptr %N, ptr %N.addr, align 8
  %this1 = load ptr, ptr %this.addr, align 8
  %NodePtr = getelementptr inbounds %"class.llvh::ilist_iterator", ptr %this1, i32 0, i32 0
  %0 = load ptr, ptr %N.addr, align 8
  store ptr %0, ptr %NodePtr, align 8
  ret void
}

; Function Attrs: mustprogress nounwind uwtable
define linkonce_odr hidden noundef ptr @_ZNK6hermes11Instruction9getParentEv(ptr noundef nonnull align 8 dereferenceable(132) %this) #0 comdat align 2 {
entry:
  %this.addr = alloca ptr, align 8
  store ptr %this, ptr %this.addr, align 8
  %this1 = load ptr, ptr %this.addr, align 8
  %Parent = getelementptr inbounds %"class.hermes::Instruction", ptr %this1, i32 0, i32 2
  %0 = load ptr, ptr %Parent, align 8
  ret ptr %0
}

; Function Attrs: mustprogress nounwind uwtable
define linkonce_odr hidden ptr @_ZN4llvh15ilist_node_implINS_12ilist_detail12node_optionsIN6hermes11InstructionELb0ELb0EvEEE11getIteratorEv(ptr noundef nonnull align 8 dereferenceable(16) %this) #0 comdat align 2 {
entry:
  %retval = alloca %"class.llvh::ilist_iterator", align 8
  %this.addr = alloca ptr, align 8
  store ptr %this, ptr %this.addr, align 8
  %this1 = load ptr, ptr %this.addr, align 8
  call void @_ZN4llvh14ilist_iteratorINS_12ilist_detail12node_optionsIN6hermes11InstructionELb0ELb0EvEELb0ELb0EEC2ERNS_15ilist_node_implIS5_EE(ptr noundef nonnull align 8 dereferenceable(8) %retval, ptr noundef nonnull align 8 dereferenceable(16) %this1)
  %coerce.dive = getelementptr inbounds %"class.llvh::ilist_iterator", ptr %retval, i32 0, i32 0
  %0 = load ptr, ptr %coerce.dive, align 8
  ret ptr %0
}

; Function Attrs: mustprogress nounwind uwtable
define hidden void @_ZN6hermes9IRBuilder17setInsertionPointEPNS_11InstructionE(ptr noundef nonnull align 8 dereferenceable(40) %this, ptr noundef %IP) #0 align 2 {
entry:
  %this.addr = alloca ptr, align 8
  %IP.addr = alloca ptr, align 8
  %ref.tmp = alloca %"class.llvh::ilist_iterator", align 8
  store ptr %this, ptr %this.addr, align 8
  store ptr %IP, ptr %IP.addr, align 8
  %this1 = load ptr, ptr %this.addr, align 8
  %0 = load ptr, ptr %IP.addr, align 8
  %call = call ptr @_ZN4llvh15ilist_node_implINS_12ilist_detail12node_optionsIN6hermes11InstructionELb0ELb0EvEEE11getIteratorEv(ptr noundef nonnull align 8 dereferenceable(16) %0)
  %coerce.dive = getelementptr inbounds %"class.llvh::ilist_iterator", ptr %ref.tmp, i32 0, i32 0
  store ptr %call, ptr %coerce.dive, align 8
  %InsertionPoint = getelementptr inbounds %"class.hermes::IRBuilder", ptr %this1, i32 0, i32 1
  call void @llvm.memcpy.p0.p0.i64(ptr align 8 %InsertionPoint, ptr align 8 %ref.tmp, i64 8, i1 false)
  %1 = load ptr, ptr %IP.addr, align 8
  %call2 = call noundef ptr @_ZNK6hermes11Instruction9getParentEv(ptr noundef nonnull align 8 dereferenceable(132) %1)
  %Block = getelementptr inbounds %"class.hermes::IRBuilder", ptr %this1, i32 0, i32 2
  store ptr %call2, ptr %Block, align 8
  ret void
}